---
triple:          'arm64-apple-darwin'
binary-path:     '/Users/macos/Downloads/OOP/W02/HW2/Source code/output/#include <iostream>'
relocations:
  - { offsetInCU: 0x2DDA, offset: 0x2DDA, size: 0x8, addend: 0x0, symName: __ZNSt3__124__put_character_sequenceB7v160006IcNS_11char_traitsIcEEEERNS_13basic_ostreamIT_T0_EES7_PKS4_m, symObjAddr: 0xB40, symBinAddr: 0x1000049D0, symSize: 0x1F4 }
  - { offsetInCU: 0x6185, offset: 0x6185, size: 0x8, addend: 0x0, symName: __ZNSt3__1lsB7v160006INS_11char_traitsIcEEEERNS_13basic_ostreamIcT_EES6_PKc, symObjAddr: 0x5DC, symBinAddr: 0x10000446C, symSize: 0x48 }
  - { offsetInCU: 0x61CB, offset: 0x61CB, size: 0x8, addend: 0x0, symName: __ZNSt3__14endlB7v160006IcNS_11char_traitsIcEEEERNS_13basic_ostreamIT_T0_EES7_, symObjAddr: 0x650, symBinAddr: 0x1000044E0, symSize: 0x58 }
  - { offsetInCU: 0x620B, offset: 0x620B, size: 0x8, addend: 0x0, symName: __ZNSt3__1lsB7v160006IcNS_11char_traitsIcEENS_9allocatorIcEEEERNS_13basic_ostreamIT_T0_EES9_RKNS_12basic_stringIS6_S7_T1_EE, symObjAddr: 0xAB8, symBinAddr: 0x100004948, symSize: 0x4C }
  - { offsetInCU: 0x6263, offset: 0x6263, size: 0x8, addend: 0x0, symName: __ZNSt3__116__pad_and_outputB7v160006IcNS_11char_traitsIcEEEENS_19ostreambuf_iteratorIT_T0_EES6_PKS4_S8_S8_RNS_8ios_baseES4_, symObjAddr: 0xDCC, symBinAddr: 0x100004C5C, symSize: 0x248 }
  - { offsetInCU: 0x6332, offset: 0x6332, size: 0x8, addend: 0x0, symName: __ZNSt3__119__debug_db_insert_cB7v160006INS_12basic_stringIcNS_11char_traitsIcEENS_9allocatorIcEEEEEEvPT_, symObjAddr: 0x1260, symBinAddr: 0x1000050F0, symSize: 0x10 }
  - { offsetInCU: 0x6363, offset: 0x6363, size: 0x8, addend: 0x0, symName: __ZNSt3__19use_facetB7v160006INS_5ctypeIcEEEERKT_RKNS_6localeE, symObjAddr: 0x148C, symBinAddr: 0x10000531C, symSize: 0x2C }
  - { offsetInCU: 0x6832, offset: 0x6832, size: 0x8, addend: 0x0, symName: __ZNSt3__112__to_addressB7v160006IKcEEPT_S3_, symObjAddr: 0x1524, symBinAddr: 0x1000053B4, symSize: 0x14 }
  - { offsetInCU: 0x6867, offset: 0x6867, size: 0x8, addend: 0x0, symName: __ZNSt3__130__libcpp_is_constant_evaluatedB7v160006Ev, symObjAddr: 0x1650, symBinAddr: 0x1000054E0, symSize: 0xC }
  - { offsetInCU: 0x68B7, offset: 0x68B7, size: 0x8, addend: 0x0, symName: __ZNSt3__118__constexpr_strlenB7v160006EPKc, symObjAddr: 0x19A0, symBinAddr: 0x100005830, symSize: 0x24 }
  - { offsetInCU: 0x68E3, offset: 0x68E3, size: 0x8, addend: 0x0, symName: __ZNSt3__119__debug_db_insert_cB7v160006INS_6vectorIP7ProjectNS_9allocatorIS3_EEEEEEvPT_, symObjAddr: 0x1A4C, symBinAddr: 0x1000058DC, symSize: 0x10 }
  - { offsetInCU: 0x6914, offset: 0x6914, size: 0x8, addend: 0x0, symName: __ZNSt3__118__debug_db_erase_cB7v160006INS_6vectorIP7ProjectNS_9allocatorIS3_EEEEEEvPT_, symObjAddr: 0x1D08, symBinAddr: 0x100005B98, symSize: 0x10 }
  - { offsetInCU: 0x6945, offset: 0x6945, size: 0x8, addend: 0x0, symName: __ZNSt3__112__to_addressB7v160006IP7ProjectEEPT_S4_, symObjAddr: 0x1E24, symBinAddr: 0x100005CB4, symSize: 0x14 }
  - { offsetInCU: 0x697A, offset: 0x697A, size: 0x8, addend: 0x0, symName: __ZNSt3__119__libcpp_deallocateB7v160006EPvmm, symObjAddr: 0x1F88, symBinAddr: 0x100005E18, symSize: 0x30 }
  - { offsetInCU: 0x69C2, offset: 0x69C2, size: 0x8, addend: 0x0, symName: __ZNSt3__127__do_deallocate_handle_sizeB7v160006IJEEEvPvmDpT_, symObjAddr: 0x1FB8, symBinAddr: 0x100005E48, symSize: 0x28 }
  - { offsetInCU: 0x6A00, offset: 0x6A00, size: 0x8, addend: 0x0, symName: __ZNSt3__124__libcpp_operator_deleteB7v160006IJPvEEEvDpT_, symObjAddr: 0x1FE0, symBinAddr: 0x100005E70, symSize: 0x24 }
  - { offsetInCU: 0x6A35, offset: 0x6A35, size: 0x8, addend: 0x0, symName: __ZNSt3__13maxB7v160006ImEERKT_S3_S3_, symObjAddr: 0x26C8, symBinAddr: 0x100006558, symSize: 0x2C }
  - { offsetInCU: 0x6A78, offset: 0x6A78, size: 0x8, addend: 0x0, symName: __ZNSt3__13minB7v160006ImEERKT_S3_S3_, symObjAddr: 0x26F4, symBinAddr: 0x100006584, symSize: 0x2C }
  - { offsetInCU: 0x6CBC, offset: 0x6CBC, size: 0x8, addend: 0x0, symName: __ZNSt3__13minB7v160006ImNS_6__lessImmEEEERKT_S5_S5_T0_, symObjAddr: 0x2780, symBinAddr: 0x100006610, symSize: 0x54 }
  - { offsetInCU: 0x6D51, offset: 0x6D51, size: 0x8, addend: 0x0, symName: __ZNSt3__120__throw_length_errorB7v160006EPKc, symObjAddr: 0x285C, symBinAddr: 0x1000066EC, symSize: 0x64 }
  - { offsetInCU: 0x6D79, offset: 0x6D79, size: 0x8, addend: 0x0, symName: __ZNSt3__13maxB7v160006ImNS_6__lessImmEEEERKT_S5_S5_T0_, symObjAddr: 0x2940, symBinAddr: 0x1000067D0, symSize: 0x54 }
  - { offsetInCU: 0x6DD3, offset: 0x6DD3, size: 0x8, addend: 0x0, symName: __ZNSt3__119__allocate_at_leastB7v160006INS_9allocatorIP7ProjectEEEENS_19__allocation_resultINS_16allocator_traitsIT_E7pointerEEERS7_m, symObjAddr: 0x2AA4, symBinAddr: 0x100006934, symSize: 0x40 }
  - { offsetInCU: 0x6E16, offset: 0x6E16, size: 0x8, addend: 0x0, symName: __ZNSt3__117__libcpp_allocateB7v160006Emm, symObjAddr: 0x2C54, symBinAddr: 0x100006AE4, symSize: 0x28 }
  - { offsetInCU: 0x6E53, offset: 0x6E53, size: 0x8, addend: 0x0, symName: __ZNSt3__121__libcpp_operator_newB7v160006IJmEEEPvDpT_, symObjAddr: 0x2C7C, symBinAddr: 0x100006B0C, symSize: 0x24 }
  - { offsetInCU: 0x6E8C, offset: 0x6E8C, size: 0x8, addend: 0x0, symName: __ZNSt3__142__uninitialized_allocator_move_if_noexceptB7v160006INS_9allocatorIP7ProjectEENS_16reverse_iteratorIPS3_EES7_S3_vEET1_RT_T0_SB_S8_, symObjAddr: 0x2D04, symBinAddr: 0x100006B94, symSize: 0xE8 }
  - { offsetInCU: 0x6F09, offset: 0x6F09, size: 0x8, addend: 0x0, symName: __ZNSt3__14swapB7v160006IPP7ProjectEEvRT_S5_, symObjAddr: 0x2E38, symBinAddr: 0x100006CC8, symSize: 0x3C }
  - { offsetInCU: 0x6F5A, offset: 0x6F5A, size: 0x8, addend: 0x0, symName: __ZNSt3__125__debug_db_invalidate_allB7v160006INS_6vectorIP7ProjectNS_9allocatorIS3_EEEEEEvPT_, symObjAddr: 0x2F20, symBinAddr: 0x100006DB0, symSize: 0x10 }
  - { offsetInCU: 0x6F8B, offset: 0x6F8B, size: 0x8, addend: 0x0, symName: __ZNSt3__1neB7v160006IPP7ProjectS3_EEbRKNS_16reverse_iteratorIT_EERKNS4_IT0_EE, symObjAddr: 0x2F30, symBinAddr: 0x100006DC0, symSize: 0x48 }
  - { offsetInCU: 0x6FFC, offset: 0x6FFC, size: 0x8, addend: 0x0, symName: __ZNSt3__114__construct_atB7v160006IP7ProjectJS2_EPS2_EEPT_S5_DpOT0_, symObjAddr: 0x2F78, symBinAddr: 0x100006E08, symSize: 0x2C }
  - { offsetInCU: 0x706C, offset: 0x706C, size: 0x8, addend: 0x0, symName: __ZNSt3__112__to_addressB7v160006INS_16reverse_iteratorIPP7ProjectEEvEENS_5decayIDTclsr19__to_address_helperIT_EE6__callclsr3stdE7declvalIRKS7_EEEEE4typeES9_, symObjAddr: 0x2FA4, symBinAddr: 0x100006E34, symSize: 0x24 }
  - { offsetInCU: 0x70A2, offset: 0x70A2, size: 0x8, addend: 0x0, symName: __ZNSt3__14moveB7v160006INS_16reverse_iteratorIPP7ProjectEES5_EET0_T_S7_S6_, symObjAddr: 0x3010, symBinAddr: 0x100006EA0, symSize: 0x78 }
  - { offsetInCU: 0x7125, offset: 0x7125, size: 0x8, addend: 0x0, symName: __ZNSt3__16__moveB7v160006INS_17_ClassicAlgPolicyENS_16reverse_iteratorIPP7ProjectEES6_S6_EENS_4pairIT0_T2_EES8_T1_S9_, symObjAddr: 0x30F8, symBinAddr: 0x100006F88, symSize: 0x64 }
  - { offsetInCU: 0x7191, offset: 0x7191, size: 0x8, addend: 0x0, symName: __ZNSt3__123__dispatch_copy_or_moveB7v160006INS_17_ClassicAlgPolicyENS_11__move_loopIS1_EENS_14__move_trivialENS_16reverse_iteratorIPP7ProjectEES9_S9_EENS_4pairIT2_T4_EESB_T3_SC_, symObjAddr: 0x315C, symBinAddr: 0x100006FEC, symSize: 0x7C }
  - { offsetInCU: 0x720F, offset: 0x720F, size: 0x8, addend: 0x0, symName: __ZNSt3__121__unwrap_and_dispatchB7v160006INS_10__overloadINS_11__move_loopINS_17_ClassicAlgPolicyEEENS_14__move_trivialEEENS_16reverse_iteratorIPP7ProjectEESB_SB_Li0EEENS_4pairIT0_T2_EESD_T1_SE_, symObjAddr: 0x31D8, symBinAddr: 0x100007068, symSize: 0x12C }
  - { offsetInCU: 0x729F, offset: 0x729F, size: 0x8, addend: 0x0, symName: __ZNSt3__114__unwrap_rangeB7v160006INS_16reverse_iteratorIPP7ProjectEES5_EENS_4pairIT0_S7_EET_S9_, symObjAddr: 0x3304, symBinAddr: 0x100007194, symSize: 0x84 }
  - { offsetInCU: 0x73F3, offset: 0x73F3, size: 0x8, addend: 0x0, symName: __ZNSt3__113__unwrap_iterB7v160006INS_16reverse_iteratorIPP7ProjectEENS_18__unwrap_iter_implIS5_Lb0EEELi0EEEDTclsrT0_8__unwrapclsr3stdE7declvalIT_EEEES9_, symObjAddr: 0x3428, symBinAddr: 0x1000072B8, symSize: 0x44 }
  - { offsetInCU: 0x7437, offset: 0x7437, size: 0x8, addend: 0x0, symName: __ZNSt3__19make_pairB7v160006INS_16reverse_iteratorIPP7ProjectEES5_EENS_4pairINS_18__unwrap_ref_decayIT_E4typeENS7_IT0_E4typeEEEOS8_OSB_, symObjAddr: 0x346C, symBinAddr: 0x1000072FC, symSize: 0x38 }
  - { offsetInCU: 0x7486, offset: 0x7486, size: 0x8, addend: 0x0, symName: __ZNSt3__114__rewrap_rangeB7v160006INS_16reverse_iteratorIPP7ProjectEES5_EET_S6_T0_, symObjAddr: 0x34A4, symBinAddr: 0x100007334, symSize: 0x5C }
  - { offsetInCU: 0x74D2, offset: 0x74D2, size: 0x8, addend: 0x0, symName: __ZNSt3__113__rewrap_iterB7v160006INS_16reverse_iteratorIPP7ProjectEES5_NS_18__unwrap_iter_implIS5_Lb0EEEEET_S8_T0_, symObjAddr: 0x3500, symBinAddr: 0x100007390, symSize: 0x88 }
  - { offsetInCU: 0x77B7, offset: 0x77B7, size: 0x8, addend: 0x0, symName: __ZSt28__throw_bad_array_new_lengthB7v160006v, symObjAddr: 0x2C20, symBinAddr: 0x100006AB0, symSize: 0x34 }
  - { offsetInCU: 0x7DF1, offset: 0x7DF1, size: 0x8, addend: 0x0, symName: __ZNSt3__16vectorIP7ProjectNS_9allocatorIS2_EEE26__swap_out_circular_bufferERNS_14__split_bufferIS2_RS4_EE, symObjAddr: 0x24F4, symBinAddr: 0x100006384, symSize: 0x118 }
  - { offsetInCU: 0xA024, offset: 0xA024, size: 0x8, addend: 0x0, symName: _main, symObjAddr: 0x0, symBinAddr: 0x100003E90, symSize: 0x5DC }
  - { offsetInCU: 0xA07A, offset: 0xA07A, size: 0x8, addend: 0x0, symName: __ZNSt3__113basic_ostreamIcNS_11char_traitsIcEEElsB7v160006EPFRS3_S4_E, symObjAddr: 0x624, symBinAddr: 0x1000044B4, symSize: 0x2C }
  - { offsetInCU: 0xA0AD, offset: 0xA0AD, size: 0x8, addend: 0x0, symName: __ZNSt3__16vectorIP7ProjectNS_9allocatorIS2_EEEC1B7v160006Ev, symObjAddr: 0x6A8, symBinAddr: 0x100004538, symSize: 0x2C }
  - { offsetInCU: 0xA0D5, offset: 0xA0D5, size: 0x8, addend: 0x0, symName: __ZNSt3__16vectorIP7ProjectNS_9allocatorIS2_EEE9push_backB7v160006EOS2_, symObjAddr: 0x6D4, symBinAddr: 0x100004564, symSize: 0x6C }
  - { offsetInCU: 0xA110, offset: 0xA110, size: 0x8, addend: 0x0, symName: __ZNSt3__112basic_stringIcNS_11char_traitsIcEENS_9allocatorIcEEEC1B7v160006IDnEEPKc, symObjAddr: 0x740, symBinAddr: 0x1000045D0, symSize: 0x34 }
  - { offsetInCU: 0xA1C3, offset: 0xA1C3, size: 0x8, addend: 0x0, symName: __ZN4IdeaC1ENSt3__112basic_stringIcNS0_11char_traitsIcEENS0_9allocatorIcEEEEi, symObjAddr: 0x774, symBinAddr: 0x100004604, symSize: 0x3C }
  - { offsetInCU: 0xA290, offset: 0xA290, size: 0x8, addend: 0x0, symName: __ZN3MvpC1ENSt3__112basic_stringIcNS0_11char_traitsIcEENS0_9allocatorIcEEEEii, symObjAddr: 0x7BC, symBinAddr: 0x10000464C, symSize: 0x44 }
  - { offsetInCU: 0xA2E4, offset: 0xA2E4, size: 0x8, addend: 0x0, symName: __ZNKSt3__16vectorIP7ProjectNS_9allocatorIS2_EEE4sizeB7v160006Ev, symObjAddr: 0x800, symBinAddr: 0x100004690, symSize: 0x28 }
  - { offsetInCU: 0xA309, offset: 0xA309, size: 0x8, addend: 0x0, symName: __ZNSt3__16vectorIP7ProjectNS_9allocatorIS2_EEEixB7v160006Em, symObjAddr: 0x828, symBinAddr: 0x1000046B8, symSize: 0x24 }
  - { offsetInCU: 0xA33F, offset: 0xA33F, size: 0x8, addend: 0x0, symName: __ZNSt3__16vectorIP7ProjectNS_9allocatorIS2_EEED1B7v160006Ev, symObjAddr: 0x84C, symBinAddr: 0x1000046DC, symSize: 0x2C }
  - { offsetInCU: 0xA368, offset: 0xA368, size: 0x8, addend: 0x0, symName: __ZN4IdeaC2ENSt3__112basic_stringIcNS0_11char_traitsIcEENS0_9allocatorIcEEEEi, symObjAddr: 0x878, symBinAddr: 0x100004708, symSize: 0xA4 }
  - { offsetInCU: 0xA3AE, offset: 0xA3AE, size: 0x8, addend: 0x0, symName: __ZN7ProjectC2ENSt3__112basic_stringIcNS0_11char_traitsIcEENS0_9allocatorIcEEEEi, symObjAddr: 0x91C, symBinAddr: 0x1000047AC, symSize: 0x54 }
  - { offsetInCU: 0xA3F4, offset: 0xA3F4, size: 0x8, addend: 0x0, symName: __ZN4Idea10grantMoneyEv, symObjAddr: 0x970, symBinAddr: 0x100004800, symSize: 0x2C }
  - { offsetInCU: 0xA419, offset: 0xA419, size: 0x8, addend: 0x0, symName: __ZN4Idea5printEv, symObjAddr: 0x99C, symBinAddr: 0x10000482C, symSize: 0x11C }
  - { offsetInCU: 0xA43E, offset: 0xA43E, size: 0x8, addend: 0x0, symName: __ZN7Project7getNameEv, symObjAddr: 0xB04, symBinAddr: 0x100004994, symSize: 0x3C }
  - { offsetInCU: 0xA463, offset: 0xA463, size: 0x8, addend: 0x0, symName: __ZNKSt3__112basic_stringIcNS_11char_traitsIcEENS_9allocatorIcEEE4dataB7v160006Ev, symObjAddr: 0xD34, symBinAddr: 0x100004BC4, symSize: 0x28 }
  - { offsetInCU: 0xA488, offset: 0xA488, size: 0x8, addend: 0x0, symName: __ZNKSt3__112basic_stringIcNS_11char_traitsIcEENS_9allocatorIcEEE4sizeB7v160006Ev, symObjAddr: 0xD5C, symBinAddr: 0x100004BEC, symSize: 0x54 }
  - { offsetInCU: 0xA4CB, offset: 0xA4CB, size: 0x8, addend: 0x0, symName: __ZNKSt3__113basic_ostreamIcNS_11char_traitsIcEEE6sentrycvbB7v160006Ev, symObjAddr: 0xDB0, symBinAddr: 0x100004C40, symSize: 0x1C }
  - { offsetInCU: 0xA4F0, offset: 0xA4F0, size: 0x8, addend: 0x0, symName: __ZNSt3__119ostreambuf_iteratorIcNS_11char_traitsIcEEEC1B7v160006ERNS_13basic_ostreamIcS2_EE, symObjAddr: 0x1014, symBinAddr: 0x100004EA4, symSize: 0x34 }
  - { offsetInCU: 0xA527, offset: 0xA527, size: 0x8, addend: 0x0, symName: __ZNKSt3__18ios_base5flagsB7v160006Ev, symObjAddr: 0x1048, symBinAddr: 0x100004ED8, symSize: 0x18 }
  - { offsetInCU: 0xA54D, offset: 0xA54D, size: 0x8, addend: 0x0, symName: __ZNKSt3__19basic_iosIcNS_11char_traitsIcEEE4fillB7v160006Ev, symObjAddr: 0x1060, symBinAddr: 0x100004EF0, symSize: 0x64 }
  - { offsetInCU: 0xA574, offset: 0xA574, size: 0x8, addend: 0x0, symName: __ZNKSt3__119ostreambuf_iteratorIcNS_11char_traitsIcEEE6failedB7v160006Ev, symObjAddr: 0x10C4, symBinAddr: 0x100004F54, symSize: 0x24 }
  - { offsetInCU: 0xA599, offset: 0xA599, size: 0x8, addend: 0x0, symName: __ZNSt3__19basic_iosIcNS_11char_traitsIcEEE8setstateB7v160006Ej, symObjAddr: 0x10E8, symBinAddr: 0x100004F78, symSize: 0x2C }
  - { offsetInCU: 0xA5CD, offset: 0xA5CD, size: 0x8, addend: 0x0, symName: __ZNKSt3__18ios_base5widthB7v160006Ev, symObjAddr: 0x1114, symBinAddr: 0x100004FA4, symSize: 0x18 }
  - { offsetInCU: 0xA5F4, offset: 0xA5F4, size: 0x8, addend: 0x0, symName: __ZNSt3__115basic_streambufIcNS_11char_traitsIcEEE5sputnB7v160006EPKcl, symObjAddr: 0x112C, symBinAddr: 0x100004FBC, symSize: 0x3C }
  - { offsetInCU: 0xA635, offset: 0xA635, size: 0x8, addend: 0x0, symName: __ZNSt3__112basic_stringIcNS_11char_traitsIcEENS_9allocatorIcEEEC1B7v160006Emc, symObjAddr: 0x1168, symBinAddr: 0x100004FF8, symSize: 0x3C }
  - { offsetInCU: 0xA67C, offset: 0xA67C, size: 0x8, addend: 0x0, symName: __ZNSt3__18ios_base5widthB7v160006El, symObjAddr: 0x11A4, symBinAddr: 0x100005034, symSize: 0x2C }
  - { offsetInCU: 0xA6C1, offset: 0xA6C1, size: 0x8, addend: 0x0, symName: __ZNSt3__112basic_stringIcNS_11char_traitsIcEENS_9allocatorIcEEEC2B7v160006Emc, symObjAddr: 0x11D0, symBinAddr: 0x100005060, symSize: 0x54 }
  - { offsetInCU: 0xA70D, offset: 0xA70D, size: 0x8, addend: 0x0, symName: __ZNSt3__117__compressed_pairINS_12basic_stringIcNS_11char_traitsIcEENS_9allocatorIcEEE5__repES5_EC1B7v160006INS_18__default_init_tagESA_EEOT_OT0_, symObjAddr: 0x1224, symBinAddr: 0x1000050B4, symSize: 0x3C }
  - { offsetInCU: 0xA764, offset: 0xA764, size: 0x8, addend: 0x0, symName: __ZNSt3__117__compressed_pairINS_12basic_stringIcNS_11char_traitsIcEENS_9allocatorIcEEE5__repES5_EC2B7v160006INS_18__default_init_tagESA_EEOT_OT0_, symObjAddr: 0x1270, symBinAddr: 0x100005100, symSize: 0x3C }
  - { offsetInCU: 0xA7BB, offset: 0xA7BB, size: 0x8, addend: 0x0, symName: __ZNSt3__122__compressed_pair_elemINS_12basic_stringIcNS_11char_traitsIcEENS_9allocatorIcEEE5__repELi0ELb0EEC2B7v160006ENS_18__default_init_tagE, symObjAddr: 0x12AC, symBinAddr: 0x10000513C, symSize: 0x14 }
  - { offsetInCU: 0xA7EF, offset: 0xA7EF, size: 0x8, addend: 0x0, symName: __ZNSt3__122__compressed_pair_elemINS_9allocatorIcEELi1ELb1EEC2B7v160006ENS_18__default_init_tagE, symObjAddr: 0x12C0, symBinAddr: 0x100005150, symSize: 0x2C }
  - { offsetInCU: 0xA823, offset: 0xA823, size: 0x8, addend: 0x0, symName: __ZNSt3__19allocatorIcEC2B7v160006Ev, symObjAddr: 0x12EC, symBinAddr: 0x10000517C, symSize: 0x2C }
  - { offsetInCU: 0xA84C, offset: 0xA84C, size: 0x8, addend: 0x0, symName: __ZNSt3__116__non_trivial_ifILb1ENS_9allocatorIcEEEC2B7v160006Ev, symObjAddr: 0x1318, symBinAddr: 0x1000051A8, symSize: 0x14 }
  - { offsetInCU: 0xA875, offset: 0xA875, size: 0x8, addend: 0x0, symName: __ZNSt3__119ostreambuf_iteratorIcNS_11char_traitsIcEEEC2B7v160006ERNS_13basic_ostreamIcS2_EE, symObjAddr: 0x132C, symBinAddr: 0x1000051BC, symSize: 0x68 }
  - { offsetInCU: 0xA8AB, offset: 0xA8AB, size: 0x8, addend: 0x0, symName: __ZNKSt3__19basic_iosIcNS_11char_traitsIcEEE5rdbufB7v160006Ev, symObjAddr: 0x1394, symBinAddr: 0x100005224, symSize: 0x24 }
  - { offsetInCU: 0xA8D2, offset: 0xA8D2, size: 0x8, addend: 0x0, symName: __ZNKSt3__18ios_base5rdbufB7v160006Ev, symObjAddr: 0x13B8, symBinAddr: 0x100005248, symSize: 0x18 }
  - { offsetInCU: 0xA8F7, offset: 0xA8F7, size: 0x8, addend: 0x0, symName: __ZNSt3__111char_traitsIcE11eq_int_typeEii, symObjAddr: 0x13D0, symBinAddr: 0x100005260, symSize: 0x28 }
  - { offsetInCU: 0xA928, offset: 0xA928, size: 0x8, addend: 0x0, symName: __ZNSt3__111char_traitsIcE3eofEv, symObjAddr: 0x13F8, symBinAddr: 0x100005288, symSize: 0x8 }
  - { offsetInCU: 0xA93B, offset: 0xA93B, size: 0x8, addend: 0x0, symName: __ZNKSt3__19basic_iosIcNS_11char_traitsIcEEE5widenB7v160006Ec, symObjAddr: 0x1400, symBinAddr: 0x100005290, symSize: 0x8C }
  - { offsetInCU: 0xA9A8, offset: 0xA9A8, size: 0x8, addend: 0x0, symName: __ZNKSt3__15ctypeIcE5widenB7v160006Ec, symObjAddr: 0x14B8, symBinAddr: 0x100005348, symSize: 0x38 }
  - { offsetInCU: 0xA9DB, offset: 0xA9DB, size: 0x8, addend: 0x0, symName: __ZNSt3__18ios_base8setstateB7v160006Ej, symObjAddr: 0x14F0, symBinAddr: 0x100005380, symSize: 0x34 }
  - { offsetInCU: 0xAA11, offset: 0xAA11, size: 0x8, addend: 0x0, symName: __ZNKSt3__112basic_stringIcNS_11char_traitsIcEENS_9allocatorIcEEE13__get_pointerB7v160006Ev, symObjAddr: 0x1538, symBinAddr: 0x1000053C8, symSize: 0x54 }
  - { offsetInCU: 0xAA36, offset: 0xAA36, size: 0x8, addend: 0x0, symName: __ZNKSt3__112basic_stringIcNS_11char_traitsIcEENS_9allocatorIcEEE9__is_longB7v160006Ev, symObjAddr: 0x158C, symBinAddr: 0x10000541C, symSize: 0x74 }
  - { offsetInCU: 0xAA5B, offset: 0xAA5B, size: 0x8, addend: 0x0, symName: __ZNKSt3__112basic_stringIcNS_11char_traitsIcEENS_9allocatorIcEEE18__get_long_pointerB7v160006Ev, symObjAddr: 0x1600, symBinAddr: 0x100005490, symSize: 0x28 }
  - { offsetInCU: 0xAA80, offset: 0xAA80, size: 0x8, addend: 0x0, symName: __ZNKSt3__112basic_stringIcNS_11char_traitsIcEENS_9allocatorIcEEE19__get_short_pointerB7v160006Ev, symObjAddr: 0x1628, symBinAddr: 0x1000054B8, symSize: 0x28 }
  - { offsetInCU: 0xAAA5, offset: 0xAAA5, size: 0x8, addend: 0x0, symName: __ZNKSt3__117__compressed_pairINS_12basic_stringIcNS_11char_traitsIcEENS_9allocatorIcEEE5__repES5_E5firstB7v160006Ev, symObjAddr: 0x165C, symBinAddr: 0x1000054EC, symSize: 0x24 }
  - { offsetInCU: 0xAACA, offset: 0xAACA, size: 0x8, addend: 0x0, symName: __ZNKSt3__122__compressed_pair_elemINS_12basic_stringIcNS_11char_traitsIcEENS_9allocatorIcEEE5__repELi0ELb0EE5__getB7v160006Ev, symObjAddr: 0x1680, symBinAddr: 0x100005510, symSize: 0x14 }
  - { offsetInCU: 0xAAEF, offset: 0xAAEF, size: 0x8, addend: 0x0, symName: __ZNSt3__114pointer_traitsIPKcE10pointer_toB7v160006ERS1_, symObjAddr: 0x1694, symBinAddr: 0x100005524, symSize: 0x14 }
  - { offsetInCU: 0xAB12, offset: 0xAB12, size: 0x8, addend: 0x0, symName: __ZNKSt3__112basic_stringIcNS_11char_traitsIcEENS_9allocatorIcEEE15__get_long_sizeB7v160006Ev, symObjAddr: 0x16A8, symBinAddr: 0x100005538, symSize: 0x28 }
  - { offsetInCU: 0xAB37, offset: 0xAB37, size: 0x8, addend: 0x0, symName: __ZNKSt3__112basic_stringIcNS_11char_traitsIcEENS_9allocatorIcEEE16__get_short_sizeB7v160006Ev, symObjAddr: 0x16D0, symBinAddr: 0x100005560, symSize: 0x34 }
  - { offsetInCU: 0xAB5C, offset: 0xAB5C, size: 0x8, addend: 0x0, symName: __ZN3MvpC2ENSt3__112basic_stringIcNS0_11char_traitsIcEENS0_9allocatorIcEEEEii, symObjAddr: 0x1704, symBinAddr: 0x100005594, symSize: 0xB8 }
  - { offsetInCU: 0xABB0, offset: 0xABB0, size: 0x8, addend: 0x0, symName: __ZN3Mvp10grantMoneyEv, symObjAddr: 0x17BC, symBinAddr: 0x10000564C, symSize: 0x38 }
  - { offsetInCU: 0xABD5, offset: 0xABD5, size: 0x8, addend: 0x0, symName: __ZN3Mvp5printEv, symObjAddr: 0x17F4, symBinAddr: 0x100005684, symSize: 0x14C }
  - { offsetInCU: 0xABFA, offset: 0xABFA, size: 0x8, addend: 0x0, symName: __ZN7Project7getTimeEv, symObjAddr: 0x1940, symBinAddr: 0x1000057D0, symSize: 0x18 }
  - { offsetInCU: 0xAC1F, offset: 0xAC1F, size: 0x8, addend: 0x0, symName: __ZNSt3__111char_traitsIcE6lengthEPKc, symObjAddr: 0x1958, symBinAddr: 0x1000057E8, symSize: 0x48 }
  - { offsetInCU: 0xAC42, offset: 0xAC42, size: 0x8, addend: 0x0, symName: __ZNSt3__16vectorIP7ProjectNS_9allocatorIS2_EEEC2B7v160006Ev, symObjAddr: 0x19C4, symBinAddr: 0x100005854, symSize: 0x4C }
  - { offsetInCU: 0xAC70, offset: 0xAC70, size: 0x8, addend: 0x0, symName: __ZNSt3__117__compressed_pairIPP7ProjectNS_9allocatorIS2_EEEC1B7v160006IDnNS_18__default_init_tagEEEOT_OT0_, symObjAddr: 0x1A10, symBinAddr: 0x1000058A0, symSize: 0x3C }
  - { offsetInCU: 0xACC7, offset: 0xACC7, size: 0x8, addend: 0x0, symName: __ZNSt3__117__compressed_pairIPP7ProjectNS_9allocatorIS2_EEEC2B7v160006IDnNS_18__default_init_tagEEEOT_OT0_, symObjAddr: 0x1A5C, symBinAddr: 0x1000058EC, symSize: 0x40 }
  - { offsetInCU: 0xAD1E, offset: 0xAD1E, size: 0x8, addend: 0x0, symName: __ZNSt3__122__compressed_pair_elemIPP7ProjectLi0ELb0EEC2B7v160006IDnvEEOT_, symObjAddr: 0x1A9C, symBinAddr: 0x10000592C, symSize: 0x1C }
  - { offsetInCU: 0xAD5F, offset: 0xAD5F, size: 0x8, addend: 0x0, symName: __ZNSt3__122__compressed_pair_elemINS_9allocatorIP7ProjectEELi1ELb1EEC2B7v160006ENS_18__default_init_tagE, symObjAddr: 0x1AB8, symBinAddr: 0x100005948, symSize: 0x2C }
  - { offsetInCU: 0xAD93, offset: 0xAD93, size: 0x8, addend: 0x0, symName: __ZNSt3__19allocatorIP7ProjectEC2B7v160006Ev, symObjAddr: 0x1AE4, symBinAddr: 0x100005974, symSize: 0x2C }
  - { offsetInCU: 0xADBC, offset: 0xADBC, size: 0x8, addend: 0x0, symName: __ZNSt3__116__non_trivial_ifILb1ENS_9allocatorIP7ProjectEEEC2B7v160006Ev, symObjAddr: 0x1B10, symBinAddr: 0x1000059A0, symSize: 0x14 }
  - { offsetInCU: 0xADE5, offset: 0xADE5, size: 0x8, addend: 0x0, symName: __ZNSt3__16vectorIP7ProjectNS_9allocatorIS2_EEED2B7v160006Ev, symObjAddr: 0x1B24, symBinAddr: 0x1000059B4, symSize: 0x3C }
  - { offsetInCU: 0xAE0E, offset: 0xAE0E, size: 0x8, addend: 0x0, symName: __ZNSt3__16vectorIP7ProjectNS_9allocatorIS2_EEE16__destroy_vectorC1ERS5_, symObjAddr: 0x1B60, symBinAddr: 0x1000059F0, symSize: 0x34 }
  - { offsetInCU: 0xAE46, offset: 0xAE46, size: 0x8, addend: 0x0, symName: __ZNSt3__16vectorIP7ProjectNS_9allocatorIS2_EEE16__destroy_vectorclB7v160006Ev, symObjAddr: 0x1B94, symBinAddr: 0x100005A24, symSize: 0x9C }
  - { offsetInCU: 0xAE6B, offset: 0xAE6B, size: 0x8, addend: 0x0, symName: __ZNSt3__16vectorIP7ProjectNS_9allocatorIS2_EEE16__destroy_vectorC2ERS5_, symObjAddr: 0x1C30, symBinAddr: 0x100005AC0, symSize: 0x20 }
  - { offsetInCU: 0xAEA3, offset: 0xAEA3, size: 0x8, addend: 0x0, symName: __ZNKSt3__16vectorIP7ProjectNS_9allocatorIS2_EEE17__annotate_deleteB7v160006Ev, symObjAddr: 0x1C50, symBinAddr: 0x100005AE0, symSize: 0xB8 }
  - { offsetInCU: 0xAEC8, offset: 0xAEC8, size: 0x8, addend: 0x0, symName: __ZNSt3__16vectorIP7ProjectNS_9allocatorIS2_EEE7__clearB7v160006Ev, symObjAddr: 0x1D18, symBinAddr: 0x100005BA8, symSize: 0x28 }
  - { offsetInCU: 0xAEED, offset: 0xAEED, size: 0x8, addend: 0x0, symName: __ZNSt3__116allocator_traitsINS_9allocatorIP7ProjectEEE10deallocateB7v160006ERS4_PS3_m, symObjAddr: 0x1D40, symBinAddr: 0x100005BD0, symSize: 0x34 }
  - { offsetInCU: 0xAF2F, offset: 0xAF2F, size: 0x8, addend: 0x0, symName: __ZNSt3__16vectorIP7ProjectNS_9allocatorIS2_EEE7__allocB7v160006Ev, symObjAddr: 0x1D74, symBinAddr: 0x100005C04, symSize: 0x28 }
  - { offsetInCU: 0xAF54, offset: 0xAF54, size: 0x8, addend: 0x0, symName: __ZNKSt3__16vectorIP7ProjectNS_9allocatorIS2_EEE8capacityB7v160006Ev, symObjAddr: 0x1D9C, symBinAddr: 0x100005C2C, symSize: 0x40 }
  - { offsetInCU: 0xAF79, offset: 0xAF79, size: 0x8, addend: 0x0, symName: __ZNKSt3__16vectorIP7ProjectNS_9allocatorIS2_EEE31__annotate_contiguous_containerB7v160006EPKvS7_S7_S7_, symObjAddr: 0x1DDC, symBinAddr: 0x100005C6C, symSize: 0x20 }
  - { offsetInCU: 0xAFCA, offset: 0xAFCA, size: 0x8, addend: 0x0, symName: __ZNKSt3__16vectorIP7ProjectNS_9allocatorIS2_EEE4dataB7v160006Ev, symObjAddr: 0x1DFC, symBinAddr: 0x100005C8C, symSize: 0x28 }
  - { offsetInCU: 0xAFEF, offset: 0xAFEF, size: 0x8, addend: 0x0, symName: __ZNSt3__16vectorIP7ProjectNS_9allocatorIS2_EEE22__base_destruct_at_endB7v160006EPS2_, symObjAddr: 0x1E38, symBinAddr: 0x100005CC8, symSize: 0xA0 }
  - { offsetInCU: 0xB032, offset: 0xB032, size: 0x8, addend: 0x0, symName: __ZNSt3__116allocator_traitsINS_9allocatorIP7ProjectEEE7destroyB7v160006IS3_vEEvRS4_PT_, symObjAddr: 0x1ED8, symBinAddr: 0x100005D68, symSize: 0x2C }
  - { offsetInCU: 0xB06F, offset: 0xB06F, size: 0x8, addend: 0x0, symName: __ZNSt3__19allocatorIP7ProjectE7destroyB7v160006EPS2_, symObjAddr: 0x1F04, symBinAddr: 0x100005D94, symSize: 0x14 }
  - { offsetInCU: 0xB0A2, offset: 0xB0A2, size: 0x8, addend: 0x0, symName: __ZNSt3__19allocatorIP7ProjectE10deallocateB7v160006EPS2_m, symObjAddr: 0x1F18, symBinAddr: 0x100005DA8, symSize: 0x70 }
  - { offsetInCU: 0xB0E3, offset: 0xB0E3, size: 0x8, addend: 0x0, symName: __ZNSt3__117__compressed_pairIPP7ProjectNS_9allocatorIS2_EEE6secondB7v160006Ev, symObjAddr: 0x2004, symBinAddr: 0x100005E94, symSize: 0x24 }
  - { offsetInCU: 0xB108, offset: 0xB108, size: 0x8, addend: 0x0, symName: __ZNSt3__122__compressed_pair_elemINS_9allocatorIP7ProjectEELi1ELb1EE5__getB7v160006Ev, symObjAddr: 0x2028, symBinAddr: 0x100005EB8, symSize: 0x14 }
  - { offsetInCU: 0xB12D, offset: 0xB12D, size: 0x8, addend: 0x0, symName: __ZNKSt3__16vectorIP7ProjectNS_9allocatorIS2_EEE9__end_capB7v160006Ev, symObjAddr: 0x203C, symBinAddr: 0x100005ECC, symSize: 0x28 }
  - { offsetInCU: 0xB152, offset: 0xB152, size: 0x8, addend: 0x0, symName: __ZNKSt3__117__compressed_pairIPP7ProjectNS_9allocatorIS2_EEE5firstB7v160006Ev, symObjAddr: 0x2064, symBinAddr: 0x100005EF4, symSize: 0x24 }
  - { offsetInCU: 0xB177, offset: 0xB177, size: 0x8, addend: 0x0, symName: __ZNKSt3__122__compressed_pair_elemIPP7ProjectLi0ELb0EE5__getB7v160006Ev, symObjAddr: 0x2088, symBinAddr: 0x100005F18, symSize: 0x14 }
  - { offsetInCU: 0xB19C, offset: 0xB19C, size: 0x8, addend: 0x0, symName: __ZNSt3__112basic_stringIcNS_11char_traitsIcEENS_9allocatorIcEEEC2B7v160006IDnEEPKc, symObjAddr: 0x209C, symBinAddr: 0x100005F2C, symSize: 0x60 }
  - { offsetInCU: 0xB1D9, offset: 0xB1D9, size: 0x8, addend: 0x0, symName: __ZNSt3__16vectorIP7ProjectNS_9allocatorIS2_EEE9__end_capB7v160006Ev, symObjAddr: 0x20FC, symBinAddr: 0x100005F8C, symSize: 0x28 }
  - { offsetInCU: 0xB203, offset: 0xB203, size: 0x8, addend: 0x0, symName: __ZNSt3__16vectorIP7ProjectNS_9allocatorIS2_EEE22__construct_one_at_endB7v160006IJS2_EEEvDpOT_, symObjAddr: 0x2124, symBinAddr: 0x100005FB4, symSize: 0x98 }
  - { offsetInCU: 0xB250, offset: 0xB250, size: 0x8, addend: 0x0, symName: __ZNSt3__16vectorIP7ProjectNS_9allocatorIS2_EEE21__push_back_slow_pathIS2_EEvOT_, symObjAddr: 0x21BC, symBinAddr: 0x10000604C, symSize: 0xE0 }
  - { offsetInCU: 0xB2AD, offset: 0xB2AD, size: 0x8, addend: 0x0, symName: __ZNSt3__117__compressed_pairIPP7ProjectNS_9allocatorIS2_EEE5firstB7v160006Ev, symObjAddr: 0x229C, symBinAddr: 0x10000612C, symSize: 0x24 }
  - { offsetInCU: 0xB2D2, offset: 0xB2D2, size: 0x8, addend: 0x0, symName: __ZNSt3__122__compressed_pair_elemIPP7ProjectLi0ELb0EE5__getB7v160006Ev, symObjAddr: 0x22C0, symBinAddr: 0x100006150, symSize: 0x14 }
  - { offsetInCU: 0xB310, offset: 0xB310, size: 0x8, addend: 0x0, symName: __ZNSt3__16vectorIP7ProjectNS_9allocatorIS2_EEE21_ConstructTransactionC1B7v160006ERS5_m, symObjAddr: 0x22D4, symBinAddr: 0x100006164, symSize: 0x3C }
  - { offsetInCU: 0xB357, offset: 0xB357, size: 0x8, addend: 0x0, symName: __ZNSt3__116allocator_traitsINS_9allocatorIP7ProjectEEE9constructB7v160006IS3_JS3_EvEEvRS4_PT_DpOT0_, symObjAddr: 0x2310, symBinAddr: 0x1000061A0, symSize: 0x34 }
  - { offsetInCU: 0xB3AE, offset: 0xB3AE, size: 0x8, addend: 0x0, symName: __ZNSt3__16vectorIP7ProjectNS_9allocatorIS2_EEE21_ConstructTransactionD1B7v160006Ev, symObjAddr: 0x2344, symBinAddr: 0x1000061D4, symSize: 0x2C }
  - { offsetInCU: 0xB3D7, offset: 0xB3D7, size: 0x8, addend: 0x0, symName: __ZNSt3__16vectorIP7ProjectNS_9allocatorIS2_EEE21_ConstructTransactionC2B7v160006ERS5_m, symObjAddr: 0x2370, symBinAddr: 0x100006200, symSize: 0x44 }
  - { offsetInCU: 0xB41E, offset: 0xB41E, size: 0x8, addend: 0x0, symName: __ZNSt3__19allocatorIP7ProjectE9constructB7v160006IS2_JS2_EEEvPT_DpOT0_, symObjAddr: 0x23B4, symBinAddr: 0x100006244, symSize: 0x28 }
  - { offsetInCU: 0xB473, offset: 0xB473, size: 0x8, addend: 0x0, symName: __ZNSt3__16vectorIP7ProjectNS_9allocatorIS2_EEE21_ConstructTransactionD2B7v160006Ev, symObjAddr: 0x23DC, symBinAddr: 0x10000626C, symSize: 0x20 }
  - { offsetInCU: 0xB49B, offset: 0xB49B, size: 0x8, addend: 0x0, symName: __ZNKSt3__16vectorIP7ProjectNS_9allocatorIS2_EEE11__recommendB7v160006Em, symObjAddr: 0x23FC, symBinAddr: 0x10000628C, symSize: 0xB4 }
  - { offsetInCU: 0xB4EF, offset: 0xB4EF, size: 0x8, addend: 0x0, symName: __ZNSt3__114__split_bufferIP7ProjectRNS_9allocatorIS2_EEEC1EmmS5_, symObjAddr: 0x24B0, symBinAddr: 0x100006340, symSize: 0x44 }
  - { offsetInCU: 0xB544, offset: 0xB544, size: 0x8, addend: 0x0, symName: __ZNSt3__114__split_bufferIP7ProjectRNS_9allocatorIS2_EEED1Ev, symObjAddr: 0x260C, symBinAddr: 0x10000649C, symSize: 0x2C }
  - { offsetInCU: 0xB56E, offset: 0xB56E, size: 0x8, addend: 0x0, symName: __ZNKSt3__16vectorIP7ProjectNS_9allocatorIS2_EEE8max_sizeEv, symObjAddr: 0x2638, symBinAddr: 0x1000064C8, symSize: 0x74 }
  - { offsetInCU: 0xB595, offset: 0xB595, size: 0x8, addend: 0x0, symName: __ZNKSt3__16vectorIP7ProjectNS_9allocatorIS2_EEE20__throw_length_errorB7v160006Ev, symObjAddr: 0x26AC, symBinAddr: 0x10000653C, symSize: 0x1C }
  - { offsetInCU: 0xB5C4, offset: 0xB5C4, size: 0x8, addend: 0x0, symName: __ZNSt3__116allocator_traitsINS_9allocatorIP7ProjectEEE8max_sizeB7v160006IS4_vEEmRKS4_, symObjAddr: 0x2720, symBinAddr: 0x1000065B0, symSize: 0x24 }
  - { offsetInCU: 0xB5F2, offset: 0xB5F2, size: 0x8, addend: 0x0, symName: __ZNKSt3__16vectorIP7ProjectNS_9allocatorIS2_EEE7__allocB7v160006Ev, symObjAddr: 0x2744, symBinAddr: 0x1000065D4, symSize: 0x28 }
  - { offsetInCU: 0xB617, offset: 0xB617, size: 0x8, addend: 0x0, symName: __ZNSt3__114numeric_limitsIlE3maxB7v160006Ev, symObjAddr: 0x276C, symBinAddr: 0x1000065FC, symSize: 0x14 }
  - { offsetInCU: 0xB63F, offset: 0xB63F, size: 0x8, addend: 0x0, symName: __ZNKSt3__16__lessImmEclB7v160006ERKmS3_, symObjAddr: 0x27D4, symBinAddr: 0x100006664, symSize: 0x34 }
  - { offsetInCU: 0xB680, offset: 0xB680, size: 0x8, addend: 0x0, symName: __ZNKSt3__19allocatorIP7ProjectE8max_sizeB7v160006Ev, symObjAddr: 0x2808, symBinAddr: 0x100006698, symSize: 0x14 }
  - { offsetInCU: 0xB6A5, offset: 0xB6A5, size: 0x8, addend: 0x0, symName: __ZNKSt3__117__compressed_pairIPP7ProjectNS_9allocatorIS2_EEE6secondB7v160006Ev, symObjAddr: 0x281C, symBinAddr: 0x1000066AC, symSize: 0x24 }
  - { offsetInCU: 0xB6CA, offset: 0xB6CA, size: 0x8, addend: 0x0, symName: __ZNKSt3__122__compressed_pair_elemINS_9allocatorIP7ProjectEELi1ELb1EE5__getB7v160006Ev, symObjAddr: 0x2840, symBinAddr: 0x1000066D0, symSize: 0x14 }
  - { offsetInCU: 0xB6EF, offset: 0xB6EF, size: 0x8, addend: 0x0, symName: __ZNSt3__123__libcpp_numeric_limitsIlLb1EE3maxB7v160006Ev, symObjAddr: 0x2854, symBinAddr: 0x1000066E4, symSize: 0x8 }
  - { offsetInCU: 0xB703, offset: 0xB703, size: 0x8, addend: 0x0, symName: __ZNSt12length_errorC1B7v160006EPKc, symObjAddr: 0x28C0, symBinAddr: 0x100006750, symSize: 0x34 }
  - { offsetInCU: 0xB73A, offset: 0xB73A, size: 0x8, addend: 0x0, symName: __ZNSt12length_errorC2B7v160006EPKc, symObjAddr: 0x28F4, symBinAddr: 0x100006784, symSize: 0x4C }
  - { offsetInCU: 0xB771, offset: 0xB771, size: 0x8, addend: 0x0, symName: __ZNSt3__114__split_bufferIP7ProjectRNS_9allocatorIS2_EEEC2EmmS5_, symObjAddr: 0x2994, symBinAddr: 0x100006824, symSize: 0xD4 }
  - { offsetInCU: 0xB7E4, offset: 0xB7E4, size: 0x8, addend: 0x0, symName: __ZNSt3__117__compressed_pairIPP7ProjectRNS_9allocatorIS2_EEEC1B7v160006IDnS6_EEOT_OT0_, symObjAddr: 0x2A68, symBinAddr: 0x1000068F8, symSize: 0x3C }
  - { offsetInCU: 0xB83B, offset: 0xB83B, size: 0x8, addend: 0x0, symName: __ZNSt3__114__split_bufferIP7ProjectRNS_9allocatorIS2_EEE7__allocB7v160006Ev, symObjAddr: 0x2AE4, symBinAddr: 0x100006974, symSize: 0x28 }
  - { offsetInCU: 0xB860, offset: 0xB860, size: 0x8, addend: 0x0, symName: __ZNSt3__114__split_bufferIP7ProjectRNS_9allocatorIS2_EEE9__end_capB7v160006Ev, symObjAddr: 0x2B0C, symBinAddr: 0x10000699C, symSize: 0x28 }
  - { offsetInCU: 0xB885, offset: 0xB885, size: 0x8, addend: 0x0, symName: __ZNSt3__117__compressed_pairIPP7ProjectRNS_9allocatorIS2_EEEC2B7v160006IDnS6_EEOT_OT0_, symObjAddr: 0x2B34, symBinAddr: 0x1000069C4, symSize: 0x48 }
  - { offsetInCU: 0xB8DC, offset: 0xB8DC, size: 0x8, addend: 0x0, symName: __ZNSt3__122__compressed_pair_elemIRNS_9allocatorIP7ProjectEELi1ELb0EEC2B7v160006IS5_vEEOT_, symObjAddr: 0x2B7C, symBinAddr: 0x100006A0C, symSize: 0x20 }
  - { offsetInCU: 0xB91D, offset: 0xB91D, size: 0x8, addend: 0x0, symName: __ZNSt3__19allocatorIP7ProjectE8allocateB7v160006Em, symObjAddr: 0x2B9C, symBinAddr: 0x100006A2C, symSize: 0x84 }
  - { offsetInCU: 0xB950, offset: 0xB950, size: 0x8, addend: 0x0, symName: __ZNSt3__117__compressed_pairIPP7ProjectRNS_9allocatorIS2_EEE6secondB7v160006Ev, symObjAddr: 0x2CA0, symBinAddr: 0x100006B30, symSize: 0x28 }
  - { offsetInCU: 0xB975, offset: 0xB975, size: 0x8, addend: 0x0, symName: __ZNSt3__122__compressed_pair_elemIRNS_9allocatorIP7ProjectEELi1ELb0EE5__getB7v160006Ev, symObjAddr: 0x2CC8, symBinAddr: 0x100006B58, symSize: 0x18 }
  - { offsetInCU: 0xB99A, offset: 0xB99A, size: 0x8, addend: 0x0, symName: __ZNSt3__117__compressed_pairIPP7ProjectRNS_9allocatorIS2_EEE5firstB7v160006Ev, symObjAddr: 0x2CE0, symBinAddr: 0x100006B70, symSize: 0x24 }
  - { offsetInCU: 0xB9BF, offset: 0xB9BF, size: 0x8, addend: 0x0, symName: __ZNSt3__116reverse_iteratorIPP7ProjectEC1B7v160006ES3_, symObjAddr: 0x2DEC, symBinAddr: 0x100006C7C, symSize: 0x34 }
  - { offsetInCU: 0xB9F6, offset: 0xB9F6, size: 0x8, addend: 0x0, symName: __ZNKSt3__116reverse_iteratorIPP7ProjectE4baseB7v160006Ev, symObjAddr: 0x2E20, symBinAddr: 0x100006CB0, symSize: 0x18 }
  - { offsetInCU: 0xBA1B, offset: 0xBA1B, size: 0x8, addend: 0x0, symName: __ZNKSt3__16vectorIP7ProjectNS_9allocatorIS2_EEE14__annotate_newB7v160006Em, symObjAddr: 0x2E74, symBinAddr: 0x100006D04, symSize: 0xAC }
  - { offsetInCU: 0xBA4F, offset: 0xBA4F, size: 0x8, addend: 0x0, symName: __ZNKSt3__116reverse_iteratorIPP7ProjectEdeB7v160006Ev, symObjAddr: 0x2FC8, symBinAddr: 0x100006E58, symSize: 0x28 }
  - { offsetInCU: 0xBA82, offset: 0xBA82, size: 0x8, addend: 0x0, symName: __ZNSt3__116reverse_iteratorIPP7ProjectEppB7v160006Ev, symObjAddr: 0x2FF0, symBinAddr: 0x100006E80, symSize: 0x20 }
  - { offsetInCU: 0xBAAC, offset: 0xBAAC, size: 0x8, addend: 0x0, symName: __ZNSt3__119__to_address_helperINS_16reverse_iteratorIPP7ProjectEEvE6__callB7v160006ERKS5_, symObjAddr: 0x3088, symBinAddr: 0x100006F18, symSize: 0x4C }
  - { offsetInCU: 0xBACF, offset: 0xBACF, size: 0x8, addend: 0x0, symName: __ZNKSt3__116reverse_iteratorIPP7ProjectEptB7v160006Ev, symObjAddr: 0x30D4, symBinAddr: 0x100006F64, symSize: 0x24 }
  - { offsetInCU: 0xBB17, offset: 0xBB17, size: 0x8, addend: 0x0, symName: __ZNKSt3__111__move_loopINS_17_ClassicAlgPolicyEEclB7v160006INS_16reverse_iteratorIPP7ProjectEES8_S8_EENS_4pairIT_T1_EESA_T0_SB_, symObjAddr: 0x3388, symBinAddr: 0x100007218, symSize: 0xA0 }
  - { offsetInCU: 0xBB81, offset: 0xBB81, size: 0x8, addend: 0x0, symName: __ZNSt3__18_IterOpsINS_17_ClassicAlgPolicyEE11__iter_moveB7v160006IRNS_16reverse_iteratorIPP7ProjectEEEENS_9enable_ifIXsr12is_referenceIDTdeclsr3stdE7declvalIRT_EEEEE5valueEDTclsr3stdE4movedeclsr3stdE7declvalISC_EEEEE4typeEOSB_, symObjAddr: 0x3588, symBinAddr: 0x100007418, symSize: 0x28 }
  - { offsetInCU: 0xBBAD, offset: 0xBBAD, size: 0x8, addend: 0x0, symName: __ZNSt3__18_IterOpsINS_17_ClassicAlgPolicyEE25__validate_iter_referenceB7v160006IRNS_16reverse_iteratorIPP7ProjectEEEEvv, symObjAddr: 0x35B0, symBinAddr: 0x100007440, symSize: 0x4 }
  - { offsetInCU: 0xBBCB, offset: 0xBBCB, size: 0x8, addend: 0x0, symName: __ZNSt3__118__unwrap_iter_implINS_16reverse_iteratorIPP7ProjectEELb0EE8__unwrapB7v160006ES5_, symObjAddr: 0x35B4, symBinAddr: 0x100007444, symSize: 0x24 }
  - { offsetInCU: 0xBBEE, offset: 0xBBEE, size: 0x8, addend: 0x0, symName: __ZNSt3__14pairINS_16reverse_iteratorIPP7ProjectEES5_EC1B7v160006ERKS5_S8_, symObjAddr: 0x35D8, symBinAddr: 0x100007468, symSize: 0x3C }
  - { offsetInCU: 0xBC33, offset: 0xBC33, size: 0x8, addend: 0x0, symName: __ZNSt3__14pairINS_16reverse_iteratorIPP7ProjectEES5_EC2B7v160006ERKS5_S8_, symObjAddr: 0x3614, symBinAddr: 0x1000074A4, symSize: 0x34 }
  - { offsetInCU: 0xBC78, offset: 0xBC78, size: 0x8, addend: 0x0, symName: __ZNSt3__118__unwrap_iter_implINS_16reverse_iteratorIPP7ProjectEELb0EE8__rewrapB7v160006ES5_S5_, symObjAddr: 0x3648, symBinAddr: 0x1000074D8, symSize: 0x2C }
  - { offsetInCU: 0xBCA6, offset: 0xBCA6, size: 0x8, addend: 0x0, symName: __ZNSt3__116reverse_iteratorIPP7ProjectEC2B7v160006ES3_, symObjAddr: 0x3674, symBinAddr: 0x100007504, symSize: 0x28 }
  - { offsetInCU: 0xBCDD, offset: 0xBCDD, size: 0x8, addend: 0x0, symName: __ZNSt3__114__split_bufferIP7ProjectRNS_9allocatorIS2_EEED2Ev, symObjAddr: 0x369C, symBinAddr: 0x10000752C, symSize: 0x80 }
  - { offsetInCU: 0xBD08, offset: 0xBD08, size: 0x8, addend: 0x0, symName: __ZNSt3__114__split_bufferIP7ProjectRNS_9allocatorIS2_EEE5clearB7v160006Ev, symObjAddr: 0x371C, symBinAddr: 0x1000075AC, symSize: 0x28 }
  - { offsetInCU: 0xBD2D, offset: 0xBD2D, size: 0x8, addend: 0x0, symName: __ZNKSt3__114__split_bufferIP7ProjectRNS_9allocatorIS2_EEE8capacityB7v160006Ev, symObjAddr: 0x3744, symBinAddr: 0x1000075D4, symSize: 0x40 }
  - { offsetInCU: 0xBD52, offset: 0xBD52, size: 0x8, addend: 0x0, symName: __ZNSt3__114__split_bufferIP7ProjectRNS_9allocatorIS2_EEE17__destruct_at_endB7v160006EPS2_, symObjAddr: 0x3784, symBinAddr: 0x100007614, symSize: 0x2C }
  - { offsetInCU: 0xBD84, offset: 0xBD84, size: 0x8, addend: 0x0, symName: __ZNSt3__114__split_bufferIP7ProjectRNS_9allocatorIS2_EEE17__destruct_at_endB7v160006EPS2_NS_17integral_constantIbLb0EEE, symObjAddr: 0x37B0, symBinAddr: 0x100007640, symSize: 0x94 }
  - { offsetInCU: 0xBDC4, offset: 0xBDC4, size: 0x8, addend: 0x0, symName: __ZNKSt3__114__split_bufferIP7ProjectRNS_9allocatorIS2_EEE9__end_capB7v160006Ev, symObjAddr: 0x3844, symBinAddr: 0x1000076D4, symSize: 0x28 }
  - { offsetInCU: 0xBDE9, offset: 0xBDE9, size: 0x8, addend: 0x0, symName: __ZNKSt3__117__compressed_pairIPP7ProjectRNS_9allocatorIS2_EEE5firstB7v160006Ev, symObjAddr: 0x386C, symBinAddr: 0x1000076FC, symSize: 0x24 }
...
